; Function Attrs: mustprogress uwtable
define void @_ZN6icu_7518CurrencyPluralInfo24setCurrencyPluralPatternERKNS_13UnicodeStringES3_R10UErrorCode(ptr nocapture noundef nonnull readonly align 8 dereferenceable(36) %this, ptr noundef nonnull align 8 dereferenceable(64) %pluralCount, ptr noundef nonnull align 8 dereferenceable(64) %pattern, ptr noundef nonnull align 4 dereferenceable(4) %status) local_unnamed_addr #1 align 2 personality ptr @__gxx_personality_v0 {
entry:
  %0 = load i32, ptr %status, align 4
  %cmp.i = icmp sgt i32 %0, 0
  br i1 %cmp.i, label %if.end14, label %if.then

if.then:                                          ; preds = %entry
  %fPluralCountToCurrencyUnitPattern = getelementptr inbounds i8, ptr %this, i64 8
  %1 = load ptr, ptr %fPluralCountToCurrencyUnitPattern, align 8
  %2 = load ptr, ptr %1, align 8
  %call.i = tail call noundef ptr @uhash_get_75(ptr noundef %2, ptr noundef nonnull %pluralCount)
  %isnull = icmp eq ptr %call.i, null
  br i1 %isnull, label %delete.end, label %delete.notnull

delete.notnull:                                   ; preds = %if.then
  %vtable = load ptr, ptr %call.i, align 8
  %vfn = getelementptr inbounds i8, ptr %vtable, i64 8
  %3 = load ptr, ptr %vfn, align 8
  tail call void %3(ptr noundef nonnull align 8 dereferenceable(64) %call.i) #10
  br label %delete.end

delete.end:                                       ; preds = %delete.notnull, %if.then
  %call3 = tail call noundef ptr @_ZN6icu_757UMemorynwEm(i64 noundef 64) #10
  %new.isnull = icmp eq ptr %call3, null
  br i1 %new.isnull, label %new.cont, label %new.notnull

new.notnull:                                      ; preds = %delete.end
  invoke void @_ZN6icu_7513UnicodeStringC1ERKS0_(ptr noundef nonnull align 8 dereferenceable(64) %call3, ptr noundef nonnull align 8 dereferenceable(64) %pattern)
          to label %_ZN6icu_7512LocalPointerINS_13UnicodeStringEEC2EPS1_R10UErrorCode.exit unwind label %lpad

new.cont:                                         ; preds = %delete.end
  %4 = load i32, ptr %status, align 4
  %cmp.i.i = icmp sgt i32 %4, 0
  br i1 %cmp.i.i, label %if.end14, label %if.then.i

if.then.i:                                        ; preds = %new.cont
  store i32 7, ptr %status, align 4
  br label %if.end14

_ZN6icu_7512LocalPointerINS_13UnicodeStringEEC2EPS1_R10UErrorCode.exit: ; preds = %new.notnull
  %.pre = load i32, ptr %status, align 4
  %5 = icmp sgt i32 %.pre, 0
  br i1 %5, label %delete.notnull.i12, label %if.then8

if.then8:                                         ; preds = %_ZN6icu_7512LocalPointerINS_13UnicodeStringEEC2EPS1_R10UErrorCode.exit
  %6 = load ptr, ptr %fPluralCountToCurrencyUnitPattern, align 8
  %7 = load ptr, ptr %6, align 8
  %call.i9 = tail call noundef ptr @_ZN6icu_757UMemorynwEm(i64 noundef 64) #10
  %new.isnull.i = icmp eq ptr %call.i9, null
  br i1 %new.isnull.i, label %new.cont.i, label %new.notnull.i

new.notnull.i:                                    ; preds = %if.then8
  invoke void @_ZN6icu_7513UnicodeStringC1ERKS0_(ptr noundef nonnull align 8 dereferenceable(64) %call.i9, ptr noundef nonnull align 8 dereferenceable(64) %pluralCount)
          to label %new.cont.i unwind label %lpad.i

new.cont.i:                                       ; preds = %new.notnull.i, %if.then8
  %call2.i10 = tail call noundef ptr @uhash_put_75(ptr noundef %7, ptr noundef %call.i9, ptr noundef nonnull %call3, ptr noundef nonnull %status)
  br label %if.end14

lpad.i:                                           ; preds = %new.notnull.i
  %8 = landingpad { ptr, i32 }
          cleanup
  br label %eh.resume

lpad:                                             ; preds = %new.notnull
  %9 = landingpad { ptr, i32 }
          cleanup
  br label %eh.resume

delete.notnull.i12:                               ; preds = %_ZN6icu_7512LocalPointerINS_13UnicodeStringEEC2EPS1_R10UErrorCode.exit
  %vtable.i13 = load ptr, ptr %call3, align 8
  %vfn.i14 = getelementptr inbounds i8, ptr %vtable.i13, i64 8
  %10 = load ptr, ptr %vfn.i14, align 8
  tail call void %10(ptr noundef nonnull align 8 dereferenceable(64) %call3) #10
  br label %if.end14

if.end14:                                         ; preds = %new.cont, %if.then.i, %new.cont.i, %delete.notnull.i12, %entry
  ret void

eh.resume:                                        ; preds = %lpad.i, %lpad
  %call.i9.sink = phi ptr [ %call.i9, %lpad.i ], [ %call3, %lpad ]
  %.pn = phi { ptr, i32 } [ %8, %lpad.i ], [ %9, %lpad ]
  tail call void @_ZN6icu_757UMemorydlEPv(ptr noundef nonnull %call.i9.sink) #10
  resume { ptr, i32 } %.pn
}